target datalayout = "e-m:e-p270:32:32-p271:32:32-p272:64:64-i64:64-i128:128-f80:128-n8:16:32:64-S128"
target triple = "x86_64-pc-linux-gnu"

%struct._object = type { %union.anon.26, ptr }
%union.anon.26 = type { i64 }
%struct.PyCompilerFlags = type { i32, i32 }
%struct._PyCompiler = type { ptr, ptr, %struct._PyFutureFeatures, %struct.PyCompilerFlags, i32, i32, ptr, ptr, ptr, i8 }
%struct._PyFutureFeatures = type { i32, %struct._Py_SourceLocation }
%struct._Py_SourceLocation = type { i32, i32, i32, i32 }
%struct.anon.27 = type { i32, i32 }
%struct.__va_list_tag = type { i32, i32, ptr, ptr }

; Function Attrs: alwaysinline nounwind uwtable
define internal i32 @_Py_IsImmortal(ptr noundef %0) #4 {
  %2 = alloca ptr, align 8
  store ptr %0, ptr %2, align 8, !tbaa !32
  %3 = load ptr, ptr %2, align 8, !tbaa !32
  %4 = getelementptr inbounds nuw %struct._object, ptr %3, i32 0, i32 0
  %5 = getelementptr inbounds nuw %struct.anon.27, ptr %4, i32 0, i32 0
  %6 = load i32, ptr %5, align 8, !tbaa !11
  %7 = icmp slt i32 %6, 0
  %8 = zext i1 %7 to i32
  ret i32 %8
}

; Function Attrs: alwaysinline nounwind uwtable
define internal void @Py_DECREF(ptr noundef %0) #4 {
  %2 = alloca ptr, align 8
  store ptr %0, ptr %2, align 8, !tbaa !32
  %3 = load ptr, ptr %2, align 8, !tbaa !32
  %4 = call i32 @_Py_IsImmortal(ptr noundef %3)
  %5 = icmp ne i32 %4, 0
  br i1 %5, label %6, label %7

6:                                                ; preds = %1
  br label %16

7:                                                ; preds = %1
  %8 = load ptr, ptr %2, align 8, !tbaa !32
  %9 = getelementptr inbounds nuw %struct._object, ptr %8, i32 0, i32 0
  %10 = getelementptr inbounds nuw %struct.anon.27, ptr %9, i32 0, i32 0
  %11 = load i32, ptr %10, align 8, !tbaa !11
  %12 = add i32 %11, -1
  store i32 %12, ptr %10, align 8, !tbaa !11
  %13 = icmp eq i32 %12, 0
  br i1 %13, label %14, label %16

14:                                               ; preds = %7
  %15 = load ptr, ptr %2, align 8, !tbaa !32
  call void @_Py_Dealloc(ptr noundef %15)
  br label %16

16:                                               ; preds = %6, %14, %7
  ret void
}

; Function Attrs: nounwind uwtable
define hidden i32 @_PyCompile_Error(ptr noundef %0, i64 %1, i64 %2, ptr noundef %3, ...) #0 {
  %5 = alloca i32, align 4
  %6 = alloca %struct._Py_SourceLocation, align 4
  %7 = alloca ptr, align 8
  %8 = alloca ptr, align 8
  %9 = alloca [1 x %struct.__va_list_tag], align 16
  %10 = alloca ptr, align 8
  %11 = alloca i32, align 4
  %12 = getelementptr inbounds nuw { i64, i64 }, ptr %6, i32 0, i32 0
  store i64 %1, ptr %12, align 4
  %13 = getelementptr inbounds nuw { i64, i64 }, ptr %6, i32 0, i32 1
  store i64 %2, ptr %13, align 4
  store ptr %0, ptr %7, align 8, !tbaa !4
  store ptr %3, ptr %8, align 8, !tbaa !92
  call void @llvm.lifetime.start.p0(i64 24, ptr %9) #8
  %14 = getelementptr inbounds [1 x %struct.__va_list_tag], ptr %9, i64 0, i64 0
  call void @llvm.va_start.p0(ptr %14)
  call void @llvm.lifetime.start.p0(i64 8, ptr %10) #8
  %15 = load ptr, ptr %8, align 8, !tbaa !92
  %16 = getelementptr inbounds [1 x %struct.__va_list_tag], ptr %9, i64 0, i64 0
  %17 = call ptr @PyUnicode_FromFormatV(ptr noundef %15, ptr noundef %16)
  store ptr %17, ptr %10, align 8, !tbaa !32
  %18 = getelementptr inbounds [1 x %struct.__va_list_tag], ptr %9, i64 0, i64 0
  call void @llvm.va_end.p0(ptr %18)
  %19 = load ptr, ptr %10, align 8, !tbaa !32
  %20 = icmp eq ptr %19, null
  br i1 %20, label %21, label %22

21:                                               ; preds = %4
  store i32 -1, ptr %5, align 4
  store i32 1, ptr %11, align 4
  br label %38

22:                                               ; preds = %4
  %23 = load ptr, ptr %10, align 8, !tbaa !32
  %24 = load ptr, ptr %7, align 8, !tbaa !4
  %25 = getelementptr inbounds nuw %struct._PyCompiler, ptr %24, i32 0, i32 0
  %26 = load ptr, ptr %25, align 8, !tbaa !93
  %27 = getelementptr inbounds nuw %struct._Py_SourceLocation, ptr %6, i32 0, i32 0
  %28 = load i32, ptr %27, align 4, !tbaa !94
  %29 = getelementptr inbounds nuw %struct._Py_SourceLocation, ptr %6, i32 0, i32 2
  %30 = load i32, ptr %29, align 4, !tbaa !95
  %31 = add i32 %30, 1
  %32 = getelementptr inbounds nuw %struct._Py_SourceLocation, ptr %6, i32 0, i32 1
  %33 = load i32, ptr %32, align 4, !tbaa !96
  %34 = getelementptr inbounds nuw %struct._Py_SourceLocation, ptr %6, i32 0, i32 3
  %35 = load i32, ptr %34, align 4, !tbaa !97
  %36 = add i32 %35, 1
  call void @_PyErr_RaiseSyntaxError(ptr noundef %23, ptr noundef %26, i32 noundef %28, i32 noundef %31, i32 noundef %33, i32 noundef %36)
  %37 = load ptr, ptr %10, align 8, !tbaa !32
  call void @Py_DECREF(ptr noundef %37)
  store i32 -1, ptr %5, align 4
  store i32 1, ptr %11, align 4
  br label %38

38:                                               ; preds = %22, %21
  call void @llvm.lifetime.end.p0(i64 8, ptr %10) #8
  call void @llvm.lifetime.end.p0(i64 24, ptr %9) #8
  %39 = load i32, ptr %5, align 4
  ret i32 %39
}