; Function Attrs: nounwind uwtable
define hidden noundef i32 @_PyCompile_Error(ptr noundef readonly captures(none) %0, i64 %1, i64 %2, ptr noundef %3, ...) local_unnamed_addr #0 {
  %5 = alloca [1 x %struct.__va_list_tag], align 16
  call void @llvm.lifetime.start.p0(i64 24, ptr nonnull %5) #11
  call void @llvm.va_start.p0(ptr nonnull %5)
  %6 = call ptr @PyUnicode_FromFormatV(ptr noundef %3, ptr noundef nonnull %5) #11
  call void @llvm.va_end.p0(ptr nonnull %5)
  %7 = icmp eq ptr %6, null
  br i1 %7, label %Py_DECREF.exit, label %8

8:                                                ; preds = %4
  %.sroa.5.8.extract.shift = lshr i64 %2, 32
  %.sroa.5.8.extract.trunc = trunc nuw i64 %.sroa.5.8.extract.shift to i32
  %.sroa.3.8.extract.trunc = trunc i64 %2 to i32
  %.sroa.2.0.extract.shift = lshr i64 %1, 32
  %.sroa.2.0.extract.trunc = trunc nuw i64 %.sroa.2.0.extract.shift to i32
  %.sroa.0.0.extract.trunc = trunc i64 %1 to i32
  %9 = load ptr, ptr %0, align 8, !tbaa !77
  %10 = add i32 %.sroa.3.8.extract.trunc, 1
  %11 = add i32 %.sroa.5.8.extract.trunc, 1
  call void @_PyErr_RaiseSyntaxError(ptr noundef nonnull %6, ptr noundef %9, i32 noundef %.sroa.0.0.extract.trunc, i32 noundef %10, i32 noundef %.sroa.2.0.extract.trunc, i32 noundef %11) #11
  %12 = load i32, ptr %6, align 8, !tbaa !4
  %.not.i = icmp sgt i32 %12, -1
  br i1 %.not.i, label %13, label %Py_DECREF.exit

13:                                               ; preds = %8
  %14 = add nsw i32 %12, -1
  store i32 %14, ptr %6, align 8, !tbaa !4
  %15 = icmp eq i32 %14, 0
  br i1 %15, label %16, label %Py_DECREF.exit

16:                                               ; preds = %13
  call void @_Py_Dealloc(ptr noundef nonnull %6) #11
  br label %Py_DECREF.exit

Py_DECREF.exit:                                   ; preds = %16, %13, %8, %4
  call void @llvm.lifetime.end.p0(i64 24, ptr nonnull %5) #11
  ret i32 -1
}